target datalayout = "e-m:e-p270:32:32-p271:32:32-p272:64:64-i64:64-i128:128-f80:128-n8:16:32:64-S128"
target triple = "x86_64-pc-linux-gnu"

%struct.PixelFormatTag = type { i32, i32 }

; Function Attrs: nounwind uwtable
define internal i32 @find_pix_fmt(ptr noundef %0, i32 noundef %1) #0 {
  %3 = alloca i32, align 4
  %4 = alloca ptr, align 8
  %5 = alloca i32, align 4
  store ptr %0, ptr %4, align 8, !tbaa !8
  store i32 %1, ptr %5, align 4, !tbaa !4
  br label %6

6:                                                ; preds = %21, %2
  %7 = load ptr, ptr %4, align 8, !tbaa !8
  %8 = getelementptr inbounds nuw %struct.PixelFormatTag, ptr %7, i32 0, i32 0
  %9 = load i32, ptr %8, align 4, !tbaa !11
  %10 = icmp ne i32 %9, -1
  br i1 %10, label %11, label %24

11:                                               ; preds = %6
  %12 = load ptr, ptr %4, align 8, !tbaa !8
  %13 = getelementptr inbounds nuw %struct.PixelFormatTag, ptr %12, i32 0, i32 1
  %14 = load i32, ptr %13, align 4, !tbaa !13
  %15 = load i32, ptr %5, align 4, !tbaa !4
  %16 = icmp eq i32 %14, %15
  br i1 %16, label %17, label %21

17:                                               ; preds = %11
  %18 = load ptr, ptr %4, align 8, !tbaa !8
  %19 = getelementptr inbounds nuw %struct.PixelFormatTag, ptr %18, i32 0, i32 0
  %20 = load i32, ptr %19, align 4, !tbaa !11
  store i32 %20, ptr %3, align 4
  br label %25

21:                                               ; preds = %11
  %22 = load ptr, ptr %4, align 8, !tbaa !8
  %23 = getelementptr inbounds nuw %struct.PixelFormatTag, ptr %22, i32 1
  store ptr %23, ptr %4, align 8, !tbaa !8
  br label %6, !llvm.loop !16

24:                                               ; preds = %6
  store i32 -1, ptr %3, align 4
  br label %25

25:                                               ; preds = %24, %17
  %26 = load i32, ptr %3, align 4
  ret i32 %26
}

; Function Attrs: nounwind uwtable
define i32 @avpriv_pix_fmt_find(i32 noundef %0, i32 noundef %1) #0 {
  %3 = alloca i32, align 4
  %4 = alloca i32, align 4
  %5 = alloca ptr, align 8
  store i32 %0, ptr %3, align 4, !tbaa !4
  store i32 %1, ptr %4, align 4, !tbaa !4
  call void @llvm.lifetime.start.p0(i64 8, ptr %5) #2
  %6 = load i32, ptr %3, align 4, !tbaa !4
  switch i32 %6, label %10 [
    i32 0, label %7
    i32 1, label %8
    i32 2, label %9
  ]

7:                                                ; preds = %2
  store ptr @raw_pix_fmt_tags, ptr %5, align 8, !tbaa !8
  br label %10

8:                                                ; preds = %2
  store ptr @pix_fmt_bps_avi, ptr %5, align 8, !tbaa !8
  br label %10

9:                                                ; preds = %2
  store ptr @pix_fmt_bps_mov, ptr %5, align 8, !tbaa !8
  br label %10

10:                                               ; preds = %2, %9, %8, %7
  %11 = load ptr, ptr %5, align 8, !tbaa !8
  %12 = load i32, ptr %4, align 4, !tbaa !4
  %13 = call i32 @find_pix_fmt(ptr noundef %11, i32 noundef %12)
  call void @llvm.lifetime.end.p0(i64 8, ptr %5) #2
  ret i32 %13
}