; Function Attrs: nofree norecurse nosync nounwind memory(none) uwtable
define i32 @avpriv_pix_fmt_find(i32 noundef %0, i32 noundef %1) local_unnamed_addr #0 {
  %switch.selectcmp = icmp eq i32 %0, 1
  %switch.select = select i1 %switch.selectcmp, ptr @pix_fmt_bps_avi, ptr @raw_pix_fmt_tags
  %switch.selectcmp2 = icmp eq i32 %0, 2
  %switch.select3 = select i1 %switch.selectcmp2, ptr @pix_fmt_bps_mov, ptr %switch.select
  %3 = load i32, ptr %switch.select3, align 16, !tbaa !9
  %.not7.i = icmp eq i32 %3, -1
  br i1 %.not7.i, label %find_pix_fmt.exit, label %.lr.ph.i.preheader

.lr.ph.i.preheader:                               ; preds = %2
  %4 = getelementptr inbounds nuw i8, ptr %switch.select3, i64 4
  %5 = load i32, ptr %4, align 4, !tbaa !4
  %6 = icmp eq i32 %5, %1
  br i1 %6, label %find_pix_fmt.exit, label %.lr.ph

.lr.ph:                                           ; preds = %.lr.ph.i.preheader, %.lr.ph.i
  %.058.i4 = phi ptr [ %7, %.lr.ph.i ], [ %switch.select3, %.lr.ph.i.preheader ]
  %7 = getelementptr inbounds nuw i8, ptr %.058.i4, i64 8
  %8 = load i32, ptr %7, align 4, !tbaa !9
  %.not.i = icmp eq i32 %8, -1
  br i1 %.not.i, label %.find_pix_fmt.exit.loopexit_crit_edge, label %.lr.ph.i, !llvm.loop !12

.lr.ph.i:                                         ; preds = %.lr.ph
  %9 = getelementptr inbounds nuw i8, ptr %.058.i4, i64 12
  %10 = load i32, ptr %9, align 4, !tbaa !4
  %11 = icmp eq i32 %10, %1
  br i1 %11, label %find_pix_fmt.exit, label %.lr.ph, !llvm.loop !12

.find_pix_fmt.exit.loopexit_crit_edge:            ; preds = %.lr.ph
  br label %find_pix_fmt.exit, !llvm.loop !12

find_pix_fmt.exit:                                ; preds = %.lr.ph.i, %.lr.ph.i.preheader, %.find_pix_fmt.exit.loopexit_crit_edge, %2
  %.lcssa.i = phi i32 [ -1, %2 ], [ -1, %.find_pix_fmt.exit.loopexit_crit_edge ], [ %3, %.lr.ph.i.preheader ], [ %8, %.lr.ph.i ]
  ret i32 %.lcssa.i
}